target datalayout = "e-m:e-p270:32:32-p271:32:32-p272:64:64-i64:64-i128:128-f80:128-n8:16:32:64-S128"
target triple = "x86_64-pc-linux-gnu"

%struct.SANMVideoContext = type { ptr, %struct.GetByteContext, i32, i32, i32, i32, [256 x i32], [768 x i16], i64, i32, i32, i32, i32, i32, ptr, ptr, ptr, ptr, ptr, ptr, i32, i32, i32, i32, i32, ptr, i32, i32, i64, i64, [256 x i16], [4 x i16], [256 x [16 x i8]], [256 x [64 x i8]], [65536 x i8], [256 x i8], [2 x [256 x [16 x i8]]], i16 }
%struct.GetByteContext = type { ptr, ptr, ptr }

@.str.29 = private unnamed_addr constant [30 x i8] c"Insufficient data for frame.\0A\00", align 1

; Function Attrs: alwaysinline nounwind uwtable
define internal i32 @bytestream_get_byte(ptr noundef %0) #4 {
  %2 = alloca ptr, align 8
  store ptr %0, ptr %2, align 8, !tbaa !119
  %3 = load ptr, ptr %2, align 8, !tbaa !119
  %4 = load ptr, ptr %3, align 8, !tbaa !63
  %5 = getelementptr inbounds i8, ptr %4, i64 1
  store ptr %5, ptr %3, align 8, !tbaa !63
  %6 = load ptr, ptr %2, align 8, !tbaa !119
  %7 = load ptr, ptr %6, align 8, !tbaa !63
  %8 = getelementptr inbounds i8, ptr %7, i64 -1
  %9 = getelementptr inbounds i8, ptr %8, i64 0
  %10 = load i8, ptr %9, align 1, !tbaa !42
  %11 = zext i8 %10 to i32
  ret i32 %11
}

; Function Attrs: alwaysinline nounwind uwtable
define internal i32 @bytestream2_get_byteu(ptr noundef %0) #4 {
  %2 = alloca ptr, align 8
  store ptr %0, ptr %2, align 8, !tbaa !96
  %3 = load ptr, ptr %2, align 8, !tbaa !96
  %4 = getelementptr inbounds nuw %struct.GetByteContext, ptr %3, i32 0, i32 0
  %5 = call i32 @bytestream_get_byte(ptr noundef %4)
  ret i32 %5
}

; Function Attrs: alwaysinline nounwind uwtable
define internal i32 @bytestream2_get_bytes_left(ptr noundef %0) #4 {
  %2 = alloca ptr, align 8
  store ptr %0, ptr %2, align 8, !tbaa !96
  %3 = load ptr, ptr %2, align 8, !tbaa !96
  %4 = getelementptr inbounds nuw %struct.GetByteContext, ptr %3, i32 0, i32 1
  %5 = load ptr, ptr %4, align 8, !tbaa !100
  %6 = load ptr, ptr %2, align 8, !tbaa !96
  %7 = getelementptr inbounds nuw %struct.GetByteContext, ptr %6, i32 0, i32 0
  %8 = load ptr, ptr %7, align 8, !tbaa !98
  %9 = ptrtoint ptr %5 to i64
  %10 = ptrtoint ptr %8 to i64
  %11 = sub i64 %9, %10
  %12 = trunc i64 %11 to i32
  ret i32 %12
}

; Function Attrs: nounwind uwtable
define internal i32 @decode_6(ptr noundef %0) #1 {
  %2 = alloca i32, align 4
  %3 = alloca ptr, align 8
  %4 = alloca i32, align 4
  %5 = alloca ptr, align 8
  %6 = alloca i32, align 4
  store ptr %0, ptr %3, align 8, !tbaa !29
  call void @llvm.lifetime.start.p0(i64 4, ptr %4) #10
  %7 = load ptr, ptr %3, align 8, !tbaa !29
  %8 = getelementptr inbounds nuw %struct.SANMVideoContext, ptr %7, i32 0, i32 28
  %9 = load i64, ptr %8, align 8, !tbaa !75
  %10 = trunc i64 %9 to i32
  store i32 %10, ptr %4, align 4, !tbaa !44
  call void @llvm.lifetime.start.p0(i64 8, ptr %5) #10
  %11 = load ptr, ptr %3, align 8, !tbaa !29
  %12 = getelementptr inbounds nuw %struct.SANMVideoContext, ptr %11, i32 0, i32 16
  %13 = load ptr, ptr %12, align 8, !tbaa !85
  store ptr %13, ptr %5, align 8, !tbaa !105
  %14 = load ptr, ptr %3, align 8, !tbaa !29
  %15 = getelementptr inbounds nuw %struct.SANMVideoContext, ptr %14, i32 0, i32 1
  %16 = call i32 @bytestream2_get_bytes_left(ptr noundef %15)
  %17 = load i32, ptr %4, align 4, !tbaa !44
  %18 = icmp slt i32 %16, %17
  br i1 %18, label %19, label %23

19:                                               ; preds = %1
  %20 = load ptr, ptr %3, align 8, !tbaa !29
  %21 = getelementptr inbounds nuw %struct.SANMVideoContext, ptr %20, i32 0, i32 0
  %22 = load ptr, ptr %21, align 8, !tbaa !31
  call void (ptr, i32, ptr, ...) @av_log(ptr noundef %22, i32 noundef 16, ptr noundef @.str.29)
  store i32 -1094995529, ptr %2, align 4
  store i32 1, ptr %6, align 4
  br label %40

23:                                               ; preds = %1
  br label %24

24:                                               ; preds = %28, %23
  %25 = load i32, ptr %4, align 4, !tbaa !44
  %26 = add nsw i32 %25, -1
  store i32 %26, ptr %4, align 4, !tbaa !44
  %27 = icmp ne i32 %25, 0
  br i1 %27, label %28, label %39

28:                                               ; preds = %24
  %29 = load ptr, ptr %3, align 8, !tbaa !29
  %30 = getelementptr inbounds nuw %struct.SANMVideoContext, ptr %29, i32 0, i32 30
  %31 = load ptr, ptr %3, align 8, !tbaa !29
  %32 = getelementptr inbounds nuw %struct.SANMVideoContext, ptr %31, i32 0, i32 1
  %33 = call i32 @bytestream2_get_byteu(ptr noundef %32)
  %34 = zext i32 %33 to i64
  %35 = getelementptr inbounds nuw [256 x i16], ptr %30, i64 0, i64 %34
  %36 = load i16, ptr %35, align 2, !tbaa !101
  %37 = load ptr, ptr %5, align 8, !tbaa !105
  %38 = getelementptr inbounds nuw i16, ptr %37, i32 1
  store ptr %38, ptr %5, align 8, !tbaa !105
  store i16 %36, ptr %37, align 2, !tbaa !101
  br label %24, !llvm.loop !213

39:                                               ; preds = %24
  store i32 0, ptr %2, align 4
  store i32 1, ptr %6, align 4
  br label %40

40:                                               ; preds = %39, %19
  call void @llvm.lifetime.end.p0(i64 8, ptr %5) #10
  call void @llvm.lifetime.end.p0(i64 4, ptr %4) #10
  %41 = load i32, ptr %2, align 4
  ret i32 %41
}