; Function Attrs: nounwind uwtable
define internal range(i32 -1094995529, 1) i32 @decode_6(ptr noundef captures(none) %0) #1 {
  %2 = getelementptr inbounds nuw i8, ptr %0, i64 2728
  %3 = load i64, ptr %2, align 8, !tbaa !40
  %4 = trunc i64 %3 to i32
  %5 = getelementptr inbounds nuw i8, ptr %0, i64 2656
  %6 = load ptr, ptr %5, align 8, !tbaa !84
  %7 = getelementptr inbounds nuw i8, ptr %0, i64 8
  %8 = getelementptr inbounds nuw i8, ptr %0, i64 16
  %9 = load ptr, ptr %8, align 8, !tbaa !58
  %10 = load ptr, ptr %7, align 8, !tbaa !56
  %11 = ptrtoint ptr %9 to i64
  %12 = ptrtoint ptr %10 to i64
  %13 = sub i64 %11, %12
  %14 = trunc i64 %13 to i32
  %15 = icmp slt i32 %14, %4
  br i1 %15, label %17, label %.preheader

.preheader:                                       ; preds = %1
  %.not12 = icmp eq i32 %4, 0
  br i1 %.not12, label %.loopexit, label %.lr.ph

.lr.ph:                                           ; preds = %.preheader
  %16 = getelementptr inbounds nuw i8, ptr %0, i64 2744
  br label %19

17:                                               ; preds = %1
  %18 = load ptr, ptr %0, align 8, !tbaa !27
  tail call void (ptr, i32, ptr, ...) @av_log(ptr noundef %18, i32 noundef 16, ptr noundef nonnull @.str.29) #12
  br label %.loopexit

19:                                               ; preds = %.lr.ph, %19
  %20 = phi ptr [ %10, %.lr.ph ], [ %22, %19 ]
  %.014 = phi ptr [ %6, %.lr.ph ], [ %27, %19 ]
  %.0913 = phi i32 [ %4, %.lr.ph ], [ %21, %19 ]
  %21 = add nsw i32 %.0913, -1
  %22 = getelementptr inbounds nuw i8, ptr %20, i64 1
  store ptr %22, ptr %7, align 8, !tbaa !60
  %23 = load i8, ptr %20, align 1, !tbaa !46
  %24 = zext i8 %23 to i64
  %25 = getelementptr inbounds nuw [256 x i16], ptr %16, i64 0, i64 %24
  %26 = load i16, ptr %25, align 2, !tbaa !65
  %27 = getelementptr inbounds nuw i8, ptr %.014, i64 2
  store i16 %26, ptr %.014, align 2, !tbaa !65
  %.not = icmp eq i32 %21, 0
  br i1 %.not, label %.loopexit, label %19, !llvm.loop !187

.loopexit:                                        ; preds = %19, %.preheader, %17
  %.010 = phi i32 [ -1094995529, %17 ], [ 0, %.preheader ], [ 0, %19 ]
  ret i32 %.010
}